target datalayout = "e-m:e-p270:32:32-p271:32:32-p272:64:64-i64:64-i128:128-f80:128-n8:16:32:64-S128"
target triple = "x86_64-pc-linux-gnu"

%class.ExportDissectionDialog = type { %class.WiresharkFileDialog, i32, ptr, %struct.print_args_t, %class.QMap, %class.PacketRangeGroupBox, %class.PacketFormatGroupBox, ptr }
%class.WiresharkFileDialog = type { %class.QFileDialog }
%class.QFileDialog = type { %class.QDialog }
%class.QDialog = type { %class.QWidget }
%class.QWidget = type { %class.QObject, %class.QPaintDevice.base, ptr }
%class.QObject = type { ptr, %class.QScopedPointer }
%class.QScopedPointer = type { ptr }
%class.QPaintDevice.base = type <{ ptr, i16 }>
%struct.print_args_t = type { ptr, i32, i8, ptr, ptr, %struct.packet_range_tag, i8, i8, i32, i8, i32, i8 }
%struct.packet_range_tag = type { i32, i8, i8, i8, ptr, i32, ptr, i32, ptr, i32, i32, i32, i32, i32, i32, i32, i32, i32, i32, i32, i32, i32, i32, i32, i32, i32, i32, i32, i32, i32, i32, i32, i32, i32, i32, i32, ptr, ptr, ptr, ptr, ptr, ptr, ptr, ptr, i8, i32 }
%class.QMap = type { %"class.QtPrivate::QExplicitlySharedDataPointerV2" }
%"class.QtPrivate::QExplicitlySharedDataPointerV2" = type { ptr }
%class.PacketRangeGroupBox = type <{ %class.QGroupBox, ptr, ptr, i32, [4 x i8] }>
%class.QGroupBox = type { %class.QWidget }
%class.PacketFormatGroupBox = type { %class.QGroupBox, ptr }

; Function Attrs: mustprogress null_pointer_is_valid sspstrong uwtable
define noundef zeroext i1 @_ZN22ExportDissectionDialog7isValidEv(ptr noundef align 8 dereferenceable_or_null(472) %0) #7 align 2 {
  %2 = alloca ptr, align 8
  %3 = alloca i8, align 1
  store ptr %0, ptr %2, align 8
  %4 = load ptr, ptr %2, align 8
  call void @llvm.lifetime.start.p0(i64 1, ptr %3) #6
  store i8 1, ptr %3, align 1
  %5 = getelementptr inbounds nuw %class.ExportDissectionDialog, ptr %4, i32 0, i32 5
  %6 = call noundef zeroext i1 @_ZN19PacketRangeGroupBox7isValidEv(ptr noundef align 8 dereferenceable_or_null(60) %5)
  br i1 %6, label %8, label %7

7:                                                ; preds = %1
  store i8 0, ptr %3, align 1
  br label %8

8:                                                ; preds = %7, %1
  %9 = getelementptr inbounds nuw %class.ExportDissectionDialog, ptr %4, i32 0, i32 1
  %10 = load i32, ptr %9, align 8
  %11 = icmp eq i32 %10, 1
  br i1 %11, label %12, label %23

12:                                               ; preds = %8
  %13 = getelementptr inbounds nuw %class.ExportDissectionDialog, ptr %4, i32 0, i32 6
  %14 = call noundef zeroext i1 @_ZN20PacketFormatGroupBox14summaryEnabledEv(ptr noundef align 8 dereferenceable_or_null(48) %13)
  br i1 %14, label %22, label %15

15:                                               ; preds = %12
  %16 = getelementptr inbounds nuw %class.ExportDissectionDialog, ptr %4, i32 0, i32 6
  %17 = call noundef zeroext i1 @_ZN20PacketFormatGroupBox14detailsEnabledEv(ptr noundef align 8 dereferenceable_or_null(48) %16)
  br i1 %17, label %22, label %18

18:                                               ; preds = %15
  %19 = getelementptr inbounds nuw %class.ExportDissectionDialog, ptr %4, i32 0, i32 6
  %20 = call noundef zeroext i1 @_ZN20PacketFormatGroupBox12bytesEnabledEv(ptr noundef align 8 dereferenceable_or_null(48) %19)
  br i1 %20, label %22, label %21

21:                                               ; preds = %18
  store i8 0, ptr %3, align 1
  br label %22

22:                                               ; preds = %21, %18, %15, %12
  br label %23

23:                                               ; preds = %22, %8
  %24 = load i8, ptr %3, align 1, !range !6, !noundef !7
  %25 = trunc i8 %24 to i1
  call void @llvm.lifetime.end.p0(i64 1, ptr %3) #6
  ret i1 %25
}