; Function Attrs: mustprogress null_pointer_is_valid sspstrong uwtable
define noundef zeroext i1 @_ZN22ExportDissectionDialog7isValidEv(ptr noundef align 8 dereferenceable_or_null(472) %0) local_unnamed_addr #4 align 2 {
  %2 = getelementptr inbounds nuw i8, ptr %0, i64 352
  %3 = tail call noundef zeroext i1 @_ZN19PacketRangeGroupBox7isValidEv(ptr noundef nonnull align 8 dereferenceable_or_null(60) %2)
  %4 = getelementptr inbounds nuw i8, ptr %0, i64 40
  %5 = load i32, ptr %4, align 8
  %6 = icmp eq i32 %5, 1
  br i1 %6, label %7, label %15

7:                                                ; preds = %1
  %8 = getelementptr inbounds nuw i8, ptr %0, i64 416
  %9 = tail call noundef zeroext i1 @_ZN20PacketFormatGroupBox14summaryEnabledEv(ptr noundef nonnull align 8 dereferenceable_or_null(48) %8)
  br i1 %9, label %15, label %10

10:                                               ; preds = %7
  %11 = tail call noundef zeroext i1 @_ZN20PacketFormatGroupBox14detailsEnabledEv(ptr noundef nonnull align 8 dereferenceable_or_null(48) %8)
  br i1 %11, label %15, label %12

12:                                               ; preds = %10
  %13 = tail call noundef zeroext i1 @_ZN20PacketFormatGroupBox12bytesEnabledEv(ptr noundef nonnull align 8 dereferenceable_or_null(48) %8)
  %14 = and i1 %3, %13
  br label %15

15:                                               ; preds = %12, %7, %10, %1
  %.1 = phi i1 [ %3, %7 ], [ %3, %10 ], [ %3, %1 ], [ %14, %12 ]
  ret i1 %.1
}